target datalayout = "e-m:e-p270:32:32-p271:32:32-p272:64:64-i64:64-i128:128-f80:128-n8:16:32:64-S128"
target triple = "x86_64-pc-linux-gnu"

%struct.mime_param_st = type { ptr, ptr }

@.str = private unnamed_addr constant [34 x i8] c"../openssl/crypto/asn1/asn_mime.c\00", align 1

; Function Attrs: nounwind uwtable
define internal void @mime_param_free(ptr noundef %0) #0 {
  %2 = alloca ptr, align 8
  store ptr %0, ptr %2, align 8, !tbaa !65
  %3 = load ptr, ptr %2, align 8, !tbaa !65
  %4 = getelementptr inbounds nuw %struct.mime_param_st, ptr %3, i32 0, i32 0
  %5 = load ptr, ptr %4, align 8, !tbaa !75
  call void @CRYPTO_free(ptr noundef %5, ptr noundef @.str, i32 noundef 979)
  %6 = load ptr, ptr %2, align 8, !tbaa !65
  %7 = getelementptr inbounds nuw %struct.mime_param_st, ptr %6, i32 0, i32 1
  %8 = load ptr, ptr %7, align 8, !tbaa !67
  call void @CRYPTO_free(ptr noundef %8, ptr noundef @.str, i32 noundef 980)
  %9 = load ptr, ptr %2, align 8, !tbaa !65
  call void @CRYPTO_free(ptr noundef %9, ptr noundef @.str, i32 noundef 981)
  ret void
}