; Function Attrs: nounwind uwtable
define internal void @mime_param_free(ptr noundef %0) #0 {
  %2 = load ptr, ptr %0, align 8, !tbaa !45
  tail call void @CRYPTO_free(ptr noundef %2, ptr noundef nonnull @.str, i32 noundef 979) #6
  %3 = getelementptr inbounds nuw i8, ptr %0, i64 8
  %4 = load ptr, ptr %3, align 8, !tbaa !47
  tail call void @CRYPTO_free(ptr noundef %4, ptr noundef nonnull @.str, i32 noundef 980) #6
  tail call void @CRYPTO_free(ptr noundef nonnull %0, ptr noundef nonnull @.str, i32 noundef 981) #6
  ret void
}